; Function Attrs: mustprogress uwtable
define noundef range(i64 0, -9223372036854775808) i64 @_ZN8nanobind6detail7obj_lenEP7_object(ptr noundef %0) local_unnamed_addr #15 {
  %2 = tail call i64 @PyObject_Size(ptr noundef %0)
  %3 = icmp slt i64 %2, 0
  br i1 %3, label %4, label %5

4:                                                ; preds = %1
  tail call void @_ZN8nanobind6detail18raise_python_errorEv() #28
  unreachable

5:                                                ; preds = %1
  ret i64 %2
}